; Function Attrs: mustprogress uwtable
define noundef i32 @_ZNK6casadi10SymbolicQr8init_memEPv(ptr noundef nonnull align 8 dereferenceable(256) %0, ptr noundef %1) unnamed_addr #4 align 2 personality ptr @__gxx_personality_v0 {
  %3 = tail call noundef i32 @_ZNK6casadi14LinsolInternal8init_memEPv(ptr noundef nonnull align 8 dereferenceable(184) %0, ptr noundef %1)
  %.not = icmp eq i32 %3, 0
  br i1 %.not, label %4, label %_ZNSt6vectorIdSaIdEE6resizeEm.exit13

4:                                                ; preds = %2
  %5 = getelementptr inbounds i8, ptr %0, i64 200
  tail call void @_ZN6casadi16SymbolicQrMemory5allocERKNS_8FunctionE(ptr noundef nonnull align 8 dereferenceable(208) %1, ptr noundef nonnull align 8 dereferenceable(8) %5)
  %6 = getelementptr inbounds i8, ptr %0, i64 192
  tail call void @_ZN6casadi16SymbolicQrMemory5allocERKNS_8FunctionE(ptr noundef nonnull align 8 dereferenceable(208) %1, ptr noundef nonnull align 8 dereferenceable(8) %6)
  %7 = getelementptr inbounds i8, ptr %0, i64 184
  tail call void @_ZN6casadi16SymbolicQrMemory5allocERKNS_8FunctionE(ptr noundef nonnull align 8 dereferenceable(208) %1, ptr noundef nonnull align 8 dereferenceable(8) %7)
  %8 = getelementptr inbounds i8, ptr %1, i64 136
  %9 = getelementptr inbounds i8, ptr %1, i64 144
  %10 = load ptr, ptr %9, align 8
  %11 = load ptr, ptr %8, align 8
  %12 = ptrtoint ptr %10 to i64
  %13 = ptrtoint ptr %11 to i64
  %14 = sub i64 %12, %13
  %15 = ashr exact i64 %14, 3
  %16 = getelementptr inbounds i8, ptr %0, i64 176
  %17 = tail call noundef i64 @_ZNK6casadi8Sparsity5size1Ev(ptr noundef nonnull align 8 dereferenceable(8) %16)
  %18 = add i64 %15, %17
  %19 = load ptr, ptr %9, align 8
  %20 = load ptr, ptr %8, align 8
  %21 = ptrtoint ptr %19 to i64
  %22 = ptrtoint ptr %20 to i64
  %23 = sub i64 %21, %22
  %24 = ashr exact i64 %23, 3
  %25 = icmp ult i64 %24, %18
  br i1 %25, label %26, label %28

26:                                               ; preds = %4
  %27 = sub i64 %18, %24
  tail call void @_ZNSt6vectorIdSaIdEE17_M_default_appendEm(ptr noundef nonnull align 8 dereferenceable(24) %8, i64 noundef %27)
  br label %_ZNSt6vectorIdSaIdEE6resizeEm.exit

28:                                               ; preds = %4
  %29 = icmp ugt i64 %24, %18
  br i1 %29, label %30, label %_ZNSt6vectorIdSaIdEE6resizeEm.exit

30:                                               ; preds = %28
  %31 = getelementptr inbounds double, ptr %20, i64 %18
  %.not.i.i = icmp eq ptr %19, %31
  br i1 %.not.i.i, label %_ZNSt6vectorIdSaIdEE6resizeEm.exit, label %32

32:                                               ; preds = %30
  store ptr %31, ptr %9, align 8
  br label %_ZNSt6vectorIdSaIdEE6resizeEm.exit

_ZNSt6vectorIdSaIdEE6resizeEm.exit:               ; preds = %26, %28, %30, %32
  %33 = getelementptr inbounds i8, ptr %1, i64 160
  %34 = tail call noundef i64 @_ZNK6casadi8Function7nnz_outEx(ptr noundef nonnull align 8 dereferenceable(8) %7, i64 noundef 0)
  %35 = getelementptr inbounds i8, ptr %1, i64 168
  %36 = load ptr, ptr %35, align 8
  %37 = load ptr, ptr %33, align 8
  %38 = ptrtoint ptr %36 to i64
  %39 = ptrtoint ptr %37 to i64
  %40 = sub i64 %38, %39
  %41 = ashr exact i64 %40, 3
  %42 = icmp ult i64 %41, %34
  br i1 %42, label %43, label %45

43:                                               ; preds = %_ZNSt6vectorIdSaIdEE6resizeEm.exit
  %44 = sub i64 %34, %41
  tail call void @_ZNSt6vectorIdSaIdEE17_M_default_appendEm(ptr noundef nonnull align 8 dereferenceable(24) %33, i64 noundef %44)
  br label %_ZNSt6vectorIdSaIdEE6resizeEm.exit11

45:                                               ; preds = %_ZNSt6vectorIdSaIdEE6resizeEm.exit
  %46 = icmp ugt i64 %41, %34
  br i1 %46, label %47, label %_ZNSt6vectorIdSaIdEE6resizeEm.exit11

47:                                               ; preds = %45
  %48 = getelementptr inbounds double, ptr %37, i64 %34
  %.not.i.i10 = icmp eq ptr %36, %48
  br i1 %.not.i.i10, label %_ZNSt6vectorIdSaIdEE6resizeEm.exit11, label %49

49:                                               ; preds = %47
  store ptr %48, ptr %35, align 8
  br label %_ZNSt6vectorIdSaIdEE6resizeEm.exit11

_ZNSt6vectorIdSaIdEE6resizeEm.exit11:             ; preds = %43, %45, %47, %49
  %50 = getelementptr inbounds i8, ptr %1, i64 184
  %51 = tail call noundef i64 @_ZNK6casadi8Function7nnz_outEx(ptr noundef nonnull align 8 dereferenceable(8) %7, i64 noundef 1)
  %52 = getelementptr inbounds i8, ptr %1, i64 192
  %53 = load ptr, ptr %52, align 8
  %54 = load ptr, ptr %50, align 8
  %55 = ptrtoint ptr %53 to i64
  %56 = ptrtoint ptr %54 to i64
  %57 = sub i64 %55, %56
  %58 = ashr exact i64 %57, 3
  %59 = icmp ult i64 %58, %51
  br i1 %59, label %60, label %62

60:                                               ; preds = %_ZNSt6vectorIdSaIdEE6resizeEm.exit11
  %61 = sub i64 %51, %58
  tail call void @_ZNSt6vectorIdSaIdEE17_M_default_appendEm(ptr noundef nonnull align 8 dereferenceable(24) %50, i64 noundef %61)
  br label %_ZNSt6vectorIdSaIdEE6resizeEm.exit13

62:                                               ; preds = %_ZNSt6vectorIdSaIdEE6resizeEm.exit11
  %63 = icmp ugt i64 %58, %51
  br i1 %63, label %64, label %_ZNSt6vectorIdSaIdEE6resizeEm.exit13

64:                                               ; preds = %62
  %65 = getelementptr inbounds double, ptr %54, i64 %51
  %.not.i.i12 = icmp eq ptr %53, %65
  br i1 %.not.i.i12, label %_ZNSt6vectorIdSaIdEE6resizeEm.exit13, label %66

66:                                               ; preds = %64
  store ptr %65, ptr %52, align 8
  br label %_ZNSt6vectorIdSaIdEE6resizeEm.exit13

_ZNSt6vectorIdSaIdEE6resizeEm.exit13:             ; preds = %66, %64, %62, %60, %2
  %.0 = phi i32 [ 1, %2 ], [ 0, %60 ], [ 0, %62 ], [ 0, %64 ], [ 0, %66 ]
  ret i32 %.0
}